; ModuleID = 'source-C-CXX/19/876.cpp'
source_filename = "source-C-CXX/19/876.cpp"
target datalayout = "e-m:e-p270:32:32-p271:32:32-p272:64:64-i64:64-f80:128-n8:16:32:64-S128"
target triple = "x86_64-pc-linux-gnu"

%"class.std::ios_base::Init" = type { i8 }
%"class.std::basic_istream" = type { i32 (...)**, i64, %"class.std::basic_ios" }
%"class.std::basic_ios" = type { %"class.std::ios_base", %"class.std::basic_ostream"*, i8, i8, %"class.std::basic_streambuf"*, %"class.std::ctype"*, %"class.std::num_put"*, %"class.std::num_get"* }
%"class.std::ios_base" = type { i32 (...)**, i64, i64, i32, i32, i32, %"struct.std::ios_base::_Callback_list"*, %"struct.std::ios_base::_Words", [8 x %"struct.std::ios_base::_Words"], i32, %"struct.std::ios_base::_Words"*, %"class.std::locale" }
%"struct.std::ios_base::_Callback_list" = type { %"struct.std::ios_base::_Callback_list"*, void (i32, %"class.std::ios_base"*, i32)*, i32, i32 }
%"struct.std::ios_base::_Words" = type { i8*, i64 }
%"class.std::locale" = type { %"class.std::locale::_Impl"* }
%"class.std::locale::_Impl" = type { i32, %"class.std::locale::facet"**, i64, %"class.std::locale::facet"**, i8** }
%"class.std::locale::facet" = type <{ i32 (...)**, i32, [4 x i8] }>
%"class.std::basic_ostream" = type { i32 (...)**, %"class.std::basic_ios" }
%"class.std::basic_streambuf" = type { i32 (...)**, i8*, i8*, i8*, i8*, i8*, i8*, %"class.std::locale" }
%"class.std::ctype" = type <{ %"class.std::locale::facet.base", [4 x i8], %struct.__locale_struct*, i8, [7 x i8], i32*, i32*, i16*, i8, [256 x i8], [256 x i8], i8, [6 x i8] }>
%"class.std::locale::facet.base" = type <{ i32 (...)**, i32 }>
%struct.__locale_struct = type { [13 x %struct.__locale_data*], i16*, i32*, i32*, [13 x i8*] }
%struct.__locale_data = type opaque
%"class.std::num_put" = type { %"class.std::locale::facet.base", [4 x i8] }
%"class.std::num_get" = type { %"class.std::locale::facet.base", [4 x i8] }

@_ZStL8__ioinit = internal global %"class.std::ios_base::Init" zeroinitializer, align 1
@__dso_handle = external hidden global i8
@_ZSt3cin = external global %"class.std::basic_istream", align 8
@_ZSt4cout = external global %"class.std::basic_ostream", align 8
@llvm.global_ctors = appending global [1 x { i32, void ()*, i8* }] [{ i32, void ()*, i8* } { i32 65535, void ()* @_GLOBAL__sub_I_876.cpp, i8* null }]

declare void @_ZNSt8ios_base4InitC1Ev(%"class.std::ios_base::Init"* nonnull align 1 dereferenceable(1)) unnamed_addr #0

; Function Attrs: nounwind
declare void @_ZNSt8ios_base4InitD1Ev(%"class.std::ios_base::Init"* nonnull align 1 dereferenceable(1)) unnamed_addr #1

; Function Attrs: nofree nounwind
declare i32 @__cxa_atexit(void (i8*)*, i8*, i8*) local_unnamed_addr #2

; Function Attrs: mustprogress norecurse sspstrong uwtable
define dso_local i32 @main() local_unnamed_addr #3 {
  %1 = alloca i8, align 1
  %2 = alloca [11 x i8], align 1
  %3 = alloca [4 x i8], align 1
  %4 = getelementptr inbounds [11 x i8], [11 x i8]* %2, i64 0, i64 0
  call void @llvm.lifetime.start.p0i8(i64 11, i8* nonnull %4) #8
  %5 = getelementptr inbounds [4 x i8], [4 x i8]* %3, i64 0, i64 0
  call void @llvm.lifetime.start.p0i8(i64 4, i8* nonnull %5) #8
  call void @_ZSt17__istream_extractRSiPcl(%"class.std::basic_istream"* nonnull align 8 dereferenceable(16) @_ZSt3cin, i8* nonnull %4, i64 11)
  %6 = load i8*, i8** bitcast (%"class.std::basic_istream"* @_ZSt3cin to i8**), align 8, !tbaa !5
  %7 = getelementptr i8, i8* %6, i64 -24
  %8 = bitcast i8* %7 to i64*
  %9 = load i64, i64* %8, align 8
  %10 = add nsw i64 %9, 32
  %11 = getelementptr inbounds i8, i8* bitcast (%"class.std::basic_istream"* @_ZSt3cin to i8*), i64 %10
  %12 = bitcast i8* %11 to i32*
  %13 = load i32, i32* %12, align 8, !tbaa !8
  %14 = and i32 %13, 5
  %15 = icmp eq i32 %14, 0
  br i1 %15, label %16, label %132

16:                                               ; preds = %0, %118
  %17 = phi i8 [ %84, %118 ], [ undef, %0 ]
  call void @_ZSt17__istream_extractRSiPcl(%"class.std::basic_istream"* nonnull align 8 dereferenceable(16) @_ZSt3cin, i8* nonnull %5, i64 4)
  %18 = call i64 @strlen(i8* noundef nonnull %4) #9
  %19 = icmp eq i64 %18, 0
  br i1 %19, label %82, label %20

20:                                               ; preds = %16
  %21 = add i64 %18, -1
  %22 = and i64 %18, 3
  %23 = icmp ult i64 %21, 3
  br i1 %23, label %61, label %24

24:                                               ; preds = %20
  %25 = and i64 %18, -4
  br label %26

26:                                               ; preds = %26, %24
  %27 = phi i64 [ 0, %24 ], [ %58, %26 ]
  %28 = phi i8 [ %17, %24 ], [ %57, %26 ]
  %29 = phi i8* [ %4, %24 ], [ %56, %26 ]
  %30 = phi i64 [ %25, %24 ], [ %59, %26 ]
  %31 = getelementptr inbounds [11 x i8], [11 x i8]* %2, i64 0, i64 %27
  %32 = load i8, i8* %31, align 1, !tbaa !18
  %33 = load i8, i8* %29, align 1, !tbaa !18
  %34 = icmp sgt i8 %32, %33
  %35 = select i1 %34, i8* %31, i8* %29
  %36 = select i1 %34, i8 %32, i8 %28
  %37 = or i64 %27, 1
  %38 = getelementptr inbounds [11 x i8], [11 x i8]* %2, i64 0, i64 %37
  %39 = load i8, i8* %38, align 1, !tbaa !18
  %40 = load i8, i8* %35, align 1, !tbaa !18
  %41 = icmp sgt i8 %39, %40
  %42 = select i1 %41, i8* %38, i8* %35
  %43 = select i1 %41, i8 %39, i8 %36
  %44 = or i64 %27, 2
  %45 = getelementptr inbounds [11 x i8], [11 x i8]* %2, i64 0, i64 %44
  %46 = load i8, i8* %45, align 1, !tbaa !18
  %47 = load i8, i8* %42, align 1, !tbaa !18
  %48 = icmp sgt i8 %46, %47
  %49 = select i1 %48, i8* %45, i8* %42
  %50 = select i1 %48, i8 %46, i8 %43
  %51 = or i64 %27, 3
  %52 = getelementptr inbounds [11 x i8], [11 x i8]* %2, i64 0, i64 %51
  %53 = load i8, i8* %52, align 1, !tbaa !18
  %54 = load i8, i8* %49, align 1, !tbaa !18
  %55 = icmp sgt i8 %53, %54
  %56 = select i1 %55, i8* %52, i8* %49
  %57 = select i1 %55, i8 %53, i8 %50
  %58 = add nuw nsw i64 %27, 4
  %59 = add i64 %30, -4
  %60 = icmp eq i64 %59, 0
  br i1 %60, label %61, label %26, !llvm.loop !19

61:                                               ; preds = %26, %20
  %62 = phi i8* [ undef, %20 ], [ %56, %26 ]
  %63 = phi i8 [ undef, %20 ], [ %57, %26 ]
  %64 = phi i64 [ 0, %20 ], [ %58, %26 ]
  %65 = phi i8 [ %17, %20 ], [ %57, %26 ]
  %66 = phi i8* [ %4, %20 ], [ %56, %26 ]
  %67 = icmp eq i64 %22, 0
  br i1 %67, label %82, label %68

68:                                               ; preds = %61, %68
  %69 = phi i64 [ %79, %68 ], [ %64, %61 ]
  %70 = phi i8 [ %78, %68 ], [ %65, %61 ]
  %71 = phi i8* [ %77, %68 ], [ %66, %61 ]
  %72 = phi i64 [ %80, %68 ], [ %22, %61 ]
  %73 = getelementptr inbounds [11 x i8], [11 x i8]* %2, i64 0, i64 %69
  %74 = load i8, i8* %73, align 1, !tbaa !18
  %75 = load i8, i8* %71, align 1, !tbaa !18
  %76 = icmp sgt i8 %74, %75
  %77 = select i1 %76, i8* %73, i8* %71
  %78 = select i1 %76, i8 %74, i8 %70
  %79 = add nuw nsw i64 %69, 1
  %80 = add i64 %72, -1
  %81 = icmp eq i64 %80, 0
  br i1 %81, label %82, label %68, !llvm.loop !21

82:                                               ; preds = %61, %68, %16
  %83 = phi i8* [ %4, %16 ], [ %62, %61 ], [ %77, %68 ]
  %84 = phi i8 [ %17, %16 ], [ %63, %61 ], [ %78, %68 ]
  store i8 0, i8* %83, align 1, !tbaa !18
  %85 = call i64 @strlen(i8* noundef nonnull dereferenceable(1) %4) #8
  %86 = call nonnull align 8 dereferenceable(8) %"class.std::basic_ostream"* @_ZSt16__ostream_insertIcSt11char_traitsIcEERSt13basic_ostreamIT_T0_ES6_PKS3_l(%"class.std::basic_ostream"* nonnull align 8 dereferenceable(8) @_ZSt4cout, i8* nonnull %4, i64 %85)
  call void @llvm.lifetime.start.p0i8(i64 1, i8* nonnull %1)
  store i8 %84, i8* %1, align 1, !tbaa !18
  %87 = call nonnull align 8 dereferenceable(8) %"class.std::basic_ostream"* @_ZSt16__ostream_insertIcSt11char_traitsIcEERSt13basic_ostreamIT_T0_ES6_PKS3_l(%"class.std::basic_ostream"* nonnull align 8 dereferenceable(8) @_ZSt4cout, i8* nonnull %1, i64 1)
  call void @llvm.lifetime.end.p0i8(i64 1, i8* nonnull %1)
  %88 = call i64 @strlen(i8* noundef nonnull dereferenceable(1) %5) #8
  %89 = call nonnull align 8 dereferenceable(8) %"class.std::basic_ostream"* @_ZSt16__ostream_insertIcSt11char_traitsIcEERSt13basic_ostreamIT_T0_ES6_PKS3_l(%"class.std::basic_ostream"* nonnull align 8 dereferenceable(8) %87, i8* nonnull %5, i64 %88)
  %90 = getelementptr inbounds i8, i8* %83, i64 1
  %91 = call i64 @strlen(i8* noundef nonnull dereferenceable(1) %90) #8
  %92 = call nonnull align 8 dereferenceable(8) %"class.std::basic_ostream"* @_ZSt16__ostream_insertIcSt11char_traitsIcEERSt13basic_ostreamIT_T0_ES6_PKS3_l(%"class.std::basic_ostream"* nonnull align 8 dereferenceable(8) %87, i8* nonnull %90, i64 %91)
  %93 = bitcast %"class.std::basic_ostream"* %87 to i8**
  %94 = load i8*, i8** %93, align 8, !tbaa !5
  %95 = getelementptr i8, i8* %94, i64 -24
  %96 = bitcast i8* %95 to i64*
  %97 = load i64, i64* %96, align 8
  %98 = bitcast %"class.std::basic_ostream"* %87 to i8*
  %99 = add nsw i64 %97, 240
  %100 = getelementptr inbounds i8, i8* %98, i64 %99
  %101 = bitcast i8* %100 to %"class.std::ctype"**
  %102 = load %"class.std::ctype"*, %"class.std::ctype"** %101, align 8, !tbaa !23
  %103 = icmp eq %"class.std::ctype"* %102, null
  br i1 %103, label %104, label %105

104:                                              ; preds = %82
  call void @_ZSt16__throw_bad_castv() #10
  unreachable

105:                                              ; preds = %82
  %106 = getelementptr inbounds %"class.std::ctype", %"class.std::ctype"* %102, i64 0, i32 8
  %107 = load i8, i8* %106, align 8, !tbaa !26
  %108 = icmp eq i8 %107, 0
  br i1 %108, label %112, label %109

109:                                              ; preds = %105
  %110 = getelementptr inbounds %"class.std::ctype", %"class.std::ctype"* %102, i64 0, i32 9, i64 10
  %111 = load i8, i8* %110, align 1, !tbaa !18
  br label %118

112:                                              ; preds = %105
  call void @_ZNKSt5ctypeIcE13_M_widen_initEv(%"class.std::ctype"* nonnull align 8 dereferenceable(570) %102)
  %113 = bitcast %"class.std::ctype"* %102 to i8 (%"class.std::ctype"*, i8)***
  %114 = load i8 (%"class.std::ctype"*, i8)**, i8 (%"class.std::ctype"*, i8)*** %113, align 8, !tbaa !5
  %115 = getelementptr inbounds i8 (%"class.std::ctype"*, i8)*, i8 (%"class.std::ctype"*, i8)** %114, i64 6
  %116 = load i8 (%"class.std::ctype"*, i8)*, i8 (%"class.std::ctype"*, i8)** %115, align 8
  %117 = call signext i8 %116(%"class.std::ctype"* nonnull align 8 dereferenceable(570) %102, i8 signext 10)
  br label %118

118:                                              ; preds = %109, %112
  %119 = phi i8 [ %111, %109 ], [ %117, %112 ]
  %120 = call nonnull align 8 dereferenceable(8) %"class.std::basic_ostream"* @_ZNSo3putEc(%"class.std::basic_ostream"* nonnull align 8 dereferenceable(8) %87, i8 signext %119)
  %121 = call nonnull align 8 dereferenceable(8) %"class.std::basic_ostream"* @_ZNSo5flushEv(%"class.std::basic_ostream"* nonnull align 8 dereferenceable(8) %120)
  call void @_ZSt17__istream_extractRSiPcl(%"class.std::basic_istream"* nonnull align 8 dereferenceable(16) @_ZSt3cin, i8* nonnull %4, i64 11)
  %122 = load i8*, i8** bitcast (%"class.std::basic_istream"* @_ZSt3cin to i8**), align 8, !tbaa !5
  %123 = getelementptr i8, i8* %122, i64 -24
  %124 = bitcast i8* %123 to i64*
  %125 = load i64, i64* %124, align 8
  %126 = add nsw i64 %125, 32
  %127 = getelementptr inbounds i8, i8* bitcast (%"class.std::basic_istream"* @_ZSt3cin to i8*), i64 %126
  %128 = bitcast i8* %127 to i32*
  %129 = load i32, i32* %128, align 8, !tbaa !8
  %130 = and i32 %129, 5
  %131 = icmp eq i32 %130, 0
  br i1 %131, label %16, label %132, !llvm.loop !28

132:                                              ; preds = %118, %0
  call void @llvm.lifetime.end.p0i8(i64 4, i8* nonnull %5) #8
  call void @llvm.lifetime.end.p0i8(i64 11, i8* nonnull %4) #8
  ret i32 0
}

; Function Attrs: argmemonly mustprogress nofree nosync nounwind willreturn
declare void @llvm.lifetime.start.p0i8(i64 immarg, i8* nocapture) #4

; Function Attrs: argmemonly mustprogress nofree nounwind readonly willreturn
declare i64 @strlen(i8* nocapture) local_unnamed_addr #5

; Function Attrs: argmemonly mustprogress nofree nosync nounwind willreturn
declare void @llvm.lifetime.end.p0i8(i64 immarg, i8* nocapture) #4

declare void @_ZSt17__istream_extractRSiPcl(%"class.std::basic_istream"* nonnull align 8 dereferenceable(16), i8*, i64) local_unnamed_addr #0

declare nonnull align 8 dereferenceable(8) %"class.std::basic_ostream"* @_ZSt16__ostream_insertIcSt11char_traitsIcEERSt13basic_ostreamIT_T0_ES6_PKS3_l(%"class.std::basic_ostream"* nonnull align 8 dereferenceable(8), i8*, i64) local_unnamed_addr #0

declare nonnull align 8 dereferenceable(8) %"class.std::basic_ostream"* @_ZNSo3putEc(%"class.std::basic_ostream"* nonnull align 8 dereferenceable(8), i8 signext) local_unnamed_addr #0

declare nonnull align 8 dereferenceable(8) %"class.std::basic_ostream"* @_ZNSo5flushEv(%"class.std::basic_ostream"* nonnull align 8 dereferenceable(8)) local_unnamed_addr #0

; Function Attrs: noreturn
declare void @_ZSt16__throw_bad_castv() local_unnamed_addr #6

declare void @_ZNKSt5ctypeIcE13_M_widen_initEv(%"class.std::ctype"* nonnull align 8 dereferenceable(570)) local_unnamed_addr #0

; Function Attrs: sspstrong uwtable
define internal void @_GLOBAL__sub_I_876.cpp() #7 section ".text.startup" {
  tail call void @_ZNSt8ios_base4InitC1Ev(%"class.std::ios_base::Init"* nonnull align 1 dereferenceable(1) @_ZStL8__ioinit)
  %1 = tail call i32 @__cxa_atexit(void (i8*)* bitcast (void (%"class.std::ios_base::Init"*)* @_ZNSt8ios_base4InitD1Ev to void (i8*)*), i8* getelementptr inbounds (%"class.std::ios_base::Init", %"class.std::ios_base::Init"* @_ZStL8__ioinit, i64 0, i32 0), i8* nonnull @__dso_handle) #8
  ret void
}


!llvm.module.flags = !{!0, !1, !2, !3}
!llvm.ident = !{!4}

!0 = !{i32 1, !"wchar_size", i32 4}
!1 = !{i32 7, !"PIC Level", i32 2}
!2 = !{i32 7, !"PIE Level", i32 2}
!3 = !{i32 7, !"uwtable", i32 1}
!4 = !{!"clang version 13.0.0"}
!5 = !{!6, !6, i64 0}
!6 = !{!"vtable pointer", !7, i64 0}
!7 = !{!"Simple C++ TBAA"}
!8 = !{!9, !13, i64 32}
!9 = !{!"_ZTSSt8ios_base", !10, i64 8, !10, i64 16, !12, i64 24, !13, i64 28, !13, i64 32, !14, i64 40, !15, i64 48, !11, i64 64, !16, i64 192, !14, i64 200, !17, i64 208}
!10 = !{!"long", !11, i64 0}
!11 = !{!"omnipotent char", !7, i64 0}
!12 = !{!"_ZTSSt13_Ios_Fmtflags", !11, i64 0}
!13 = !{!"_ZTSSt12_Ios_Iostate", !11, i64 0}
!14 = !{!"any pointer", !11, i64 0}
!15 = !{!"_ZTSNSt8ios_base6_WordsE", !14, i64 0, !10, i64 8}
!16 = !{!"int", !11, i64 0}
!17 = !{!"_ZTSSt6locale", !14, i64 0}
!18 = !{!11, !11, i64 0}
!19 = distinct !{!19, !20}
!20 = !{!"llvm.loop.mustprogress"}
!21 = distinct !{!21, !22}
!22 = !{!"llvm.loop.unroll.disable"}
!23 = !{!24, !14, i64 240}
!24 = !{!"_ZTSSt9basic_iosIcSt11char_traitsIcEE", !14, i64 216, !11, i64 224, !25, i64 225, !14, i64 232, !14, i64 240, !14, i64 248, !14, i64 256}
!25 = !{!"bool", !11, i64 0}
!26 = !{!27, !11, i64 56}
!27 = !{!"_ZTSSt5ctypeIcE", !14, i64 16, !25, i64 24, !14, i64 32, !14, i64 40, !14, i64 48, !11, i64 56, !11, i64 57, !11, i64 313, !11, i64 569}
!28 = distinct !{!28, !20}
